target datalayout = "e-m:e-p270:32:32-p271:32:32-p272:64:64-i64:64-i128:128-f80:128-n8:16:32:64-S128"
target triple = "x86_64-pc-linux-gnu"

%"class.pxrInternal_v0_24__pxrReserved__::GfColorSpace" = type { %"class.std::shared_ptr" }
%"class.std::shared_ptr" = type { %"class.std::__shared_ptr" }
%"class.std::__shared_ptr" = type { ptr, %"class.std::__shared_count" }
%"class.std::__shared_count" = type { ptr }
%"struct.pxrInternal_v0_24__pxrReserved__::GfColorSpace::_Data" = type { ptr }
%struct.pxr_nc_1_0_ColorSpaceDescriptor = type { ptr, %struct.pxr_nc_1_0_Chromaticity, %struct.pxr_nc_1_0_Chromaticity, %struct.pxr_nc_1_0_Chromaticity, %struct.pxr_nc_1_0_Chromaticity, float, float }
%struct.pxr_nc_1_0_Chromaticity = type { float, float }
%"class.pxrInternal_v0_24__pxrReserved__::GfVec2f" = type { [2 x float] }
%"class.std::tuple" = type { %"struct.std::_Tuple_impl" }
%"struct.std::_Tuple_impl" = type { %"struct.std::_Tuple_impl.3", %"struct.std::_Head_base.8" }
%"struct.std::_Tuple_impl.3" = type { %"struct.std::_Tuple_impl.4", %"struct.std::_Head_base.7" }
%"struct.std::_Tuple_impl.4" = type { %"struct.std::_Tuple_impl.5", %"struct.std::_Head_base.6" }
%"struct.std::_Tuple_impl.5" = type { %"struct.std::_Head_base" }
%"struct.std::_Head_base" = type { %"class.pxrInternal_v0_24__pxrReserved__::GfVec2f" }
%"struct.std::_Head_base.6" = type { %"class.pxrInternal_v0_24__pxrReserved__::GfVec2f" }
%"struct.std::_Head_base.7" = type { %"class.pxrInternal_v0_24__pxrReserved__::GfVec2f" }
%"struct.std::_Head_base.8" = type { %"class.pxrInternal_v0_24__pxrReserved__::GfVec2f" }

; Function Attrs: mustprogress nounwind uwtable
define linkonce_odr void @_ZNSt10_Head_baseILm3EN32pxrInternal_v0_24__pxrReserved__7GfVec2fELb0EEC2IS1_EEOT_(ptr noundef nonnull align 4 dereferenceable(8) %0, ptr noundef nonnull align 4 dereferenceable(8) %1) unnamed_addr #2 comdat align 2 {
  %3 = alloca ptr, align 8
  %4 = alloca ptr, align 8
  store ptr %0, ptr %3, align 8
  store ptr %1, ptr %4, align 8
  %5 = load ptr, ptr %3, align 8
  %6 = getelementptr inbounds nuw %"struct.std::_Head_base", ptr %5, i32 0, i32 0
  %7 = load ptr, ptr %4, align 8
  call void @llvm.memcpy.p0.p0.i64(ptr align 4 %6, ptr align 4 %7, i64 8, i1 false)
  ret void
}

; Function Attrs: mustprogress nounwind uwtable
define linkonce_odr void @_ZNSt10_Head_baseILm2EN32pxrInternal_v0_24__pxrReserved__7GfVec2fELb0EEC2IS1_EEOT_(ptr noundef nonnull align 4 dereferenceable(8) %0, ptr noundef nonnull align 4 dereferenceable(8) %1) unnamed_addr #2 comdat align 2 {
  %3 = alloca ptr, align 8
  %4 = alloca ptr, align 8
  store ptr %0, ptr %3, align 8
  store ptr %1, ptr %4, align 8
  %5 = load ptr, ptr %3, align 8
  %6 = getelementptr inbounds nuw %"struct.std::_Head_base.6", ptr %5, i32 0, i32 0
  %7 = load ptr, ptr %4, align 8
  call void @llvm.memcpy.p0.p0.i64(ptr align 4 %6, ptr align 4 %7, i64 8, i1 false)
  ret void
}

; Function Attrs: mustprogress uwtable
define linkonce_odr void @_ZNSt11_Tuple_implILm3EJN32pxrInternal_v0_24__pxrReserved__7GfVec2fEEEC2IS1_EEOT_(ptr noundef nonnull align 4 dereferenceable(8) %0, ptr noundef nonnull align 4 dereferenceable(8) %1) unnamed_addr #0 comdat align 2 {
  %3 = alloca ptr, align 8
  %4 = alloca ptr, align 8
  store ptr %0, ptr %3, align 8
  store ptr %1, ptr %4, align 8
  %5 = load ptr, ptr %3, align 8
  %6 = load ptr, ptr %4, align 8
  call void @_ZNSt10_Head_baseILm3EN32pxrInternal_v0_24__pxrReserved__7GfVec2fELb0EEC2IS1_EEOT_(ptr noundef nonnull align 4 dereferenceable(8) %5, ptr noundef nonnull align 4 dereferenceable(8) %6)
  ret void
}

; Function Attrs: mustprogress nounwind uwtable
define linkonce_odr void @_ZNSt10_Head_baseILm1EN32pxrInternal_v0_24__pxrReserved__7GfVec2fELb0EEC2IS1_EEOT_(ptr noundef nonnull align 4 dereferenceable(8) %0, ptr noundef nonnull align 4 dereferenceable(8) %1) unnamed_addr #2 comdat align 2 {
  %3 = alloca ptr, align 8
  %4 = alloca ptr, align 8
  store ptr %0, ptr %3, align 8
  store ptr %1, ptr %4, align 8
  %5 = load ptr, ptr %3, align 8
  %6 = getelementptr inbounds nuw %"struct.std::_Head_base.7", ptr %5, i32 0, i32 0
  %7 = load ptr, ptr %4, align 8
  call void @llvm.memcpy.p0.p0.i64(ptr align 4 %6, ptr align 4 %7, i64 8, i1 false)
  ret void
}

; Function Attrs: mustprogress uwtable
define linkonce_odr void @_ZNSt11_Tuple_implILm2EJN32pxrInternal_v0_24__pxrReserved__7GfVec2fES1_EEC2IS1_JS1_EvEEOT_DpOT0_(ptr noundef nonnull align 4 dereferenceable(16) %0, ptr noundef nonnull align 4 dereferenceable(8) %1, ptr noundef nonnull align 4 dereferenceable(8) %2) unnamed_addr #0 comdat align 2 {
  %4 = alloca ptr, align 8
  %5 = alloca ptr, align 8
  %6 = alloca ptr, align 8
  store ptr %0, ptr %4, align 8
  store ptr %1, ptr %5, align 8
  store ptr %2, ptr %6, align 8
  %7 = load ptr, ptr %4, align 8
  %8 = load ptr, ptr %6, align 8
  call void @_ZNSt11_Tuple_implILm3EJN32pxrInternal_v0_24__pxrReserved__7GfVec2fEEEC2IS1_EEOT_(ptr noundef nonnull align 4 dereferenceable(8) %7, ptr noundef nonnull align 4 dereferenceable(8) %8)
  %9 = getelementptr inbounds i8, ptr %7, i64 8
  %10 = load ptr, ptr %5, align 8
  call void @_ZNSt10_Head_baseILm2EN32pxrInternal_v0_24__pxrReserved__7GfVec2fELb0EEC2IS1_EEOT_(ptr noundef nonnull align 4 dereferenceable(8) %9, ptr noundef nonnull align 4 dereferenceable(8) %10)
  ret void
}

; Function Attrs: mustprogress nounwind uwtable
define linkonce_odr void @_ZNSt10_Head_baseILm0EN32pxrInternal_v0_24__pxrReserved__7GfVec2fELb0EEC2IS1_EEOT_(ptr noundef nonnull align 4 dereferenceable(8) %0, ptr noundef nonnull align 4 dereferenceable(8) %1) unnamed_addr #2 comdat align 2 {
  %3 = alloca ptr, align 8
  %4 = alloca ptr, align 8
  store ptr %0, ptr %3, align 8
  store ptr %1, ptr %4, align 8
  %5 = load ptr, ptr %3, align 8
  %6 = getelementptr inbounds nuw %"struct.std::_Head_base.8", ptr %5, i32 0, i32 0
  %7 = load ptr, ptr %4, align 8
  call void @llvm.memcpy.p0.p0.i64(ptr align 4 %6, ptr align 4 %7, i64 8, i1 false)
  ret void
}

; Function Attrs: mustprogress uwtable
define linkonce_odr void @_ZNSt11_Tuple_implILm1EJN32pxrInternal_v0_24__pxrReserved__7GfVec2fES1_S1_EEC2IS1_JS1_S1_EvEEOT_DpOT0_(ptr noundef nonnull align 4 dereferenceable(24) %0, ptr noundef nonnull align 4 dereferenceable(8) %1, ptr noundef nonnull align 4 dereferenceable(8) %2, ptr noundef nonnull align 4 dereferenceable(8) %3) unnamed_addr #0 comdat align 2 {
  %5 = alloca ptr, align 8
  %6 = alloca ptr, align 8
  %7 = alloca ptr, align 8
  %8 = alloca ptr, align 8
  store ptr %0, ptr %5, align 8
  store ptr %1, ptr %6, align 8
  store ptr %2, ptr %7, align 8
  store ptr %3, ptr %8, align 8
  %9 = load ptr, ptr %5, align 8
  %10 = load ptr, ptr %7, align 8
  %11 = load ptr, ptr %8, align 8
  call void @_ZNSt11_Tuple_implILm2EJN32pxrInternal_v0_24__pxrReserved__7GfVec2fES1_EEC2IS1_JS1_EvEEOT_DpOT0_(ptr noundef nonnull align 4 dereferenceable(16) %9, ptr noundef nonnull align 4 dereferenceable(8) %10, ptr noundef nonnull align 4 dereferenceable(8) %11)
  %12 = getelementptr inbounds i8, ptr %9, i64 16
  %13 = load ptr, ptr %6, align 8
  call void @_ZNSt10_Head_baseILm1EN32pxrInternal_v0_24__pxrReserved__7GfVec2fELb0EEC2IS1_EEOT_(ptr noundef nonnull align 4 dereferenceable(8) %12, ptr noundef nonnull align 4 dereferenceable(8) %13)
  ret void
}

; Function Attrs: noreturn nounwind uwtable
define linkonce_odr hidden void @__clang_call_terminate(ptr noundef %0) #10 comdat {
  %2 = call ptr @__cxa_begin_catch(ptr %0) #9
  call void @_ZSt9terminatev() #14
  unreachable
}

; Function Attrs: mustprogress uwtable
define linkonce_odr void @_ZNSt11_Tuple_implILm0EJN32pxrInternal_v0_24__pxrReserved__7GfVec2fES1_S1_S1_EEC2IS1_JS1_S1_S1_EvEEOT_DpOT0_(ptr noundef nonnull align 4 dereferenceable(32) %0, ptr noundef nonnull align 4 dereferenceable(8) %1, ptr noundef nonnull align 4 dereferenceable(8) %2, ptr noundef nonnull align 4 dereferenceable(8) %3, ptr noundef nonnull align 4 dereferenceable(8) %4) unnamed_addr #0 comdat align 2 {
  %6 = alloca ptr, align 8
  %7 = alloca ptr, align 8
  %8 = alloca ptr, align 8
  %9 = alloca ptr, align 8
  %10 = alloca ptr, align 8
  store ptr %0, ptr %6, align 8
  store ptr %1, ptr %7, align 8
  store ptr %2, ptr %8, align 8
  store ptr %3, ptr %9, align 8
  store ptr %4, ptr %10, align 8
  %11 = load ptr, ptr %6, align 8
  %12 = load ptr, ptr %8, align 8
  %13 = load ptr, ptr %9, align 8
  %14 = load ptr, ptr %10, align 8
  call void @_ZNSt11_Tuple_implILm1EJN32pxrInternal_v0_24__pxrReserved__7GfVec2fES1_S1_EEC2IS1_JS1_S1_EvEEOT_DpOT0_(ptr noundef nonnull align 4 dereferenceable(24) %11, ptr noundef nonnull align 4 dereferenceable(8) %12, ptr noundef nonnull align 4 dereferenceable(8) %13, ptr noundef nonnull align 4 dereferenceable(8) %14)
  %15 = getelementptr inbounds i8, ptr %11, i64 24
  %16 = load ptr, ptr %7, align 8
  call void @_ZNSt10_Head_baseILm0EN32pxrInternal_v0_24__pxrReserved__7GfVec2fELb0EEC2IS1_EEOT_(ptr noundef nonnull align 4 dereferenceable(8) %15, ptr noundef nonnull align 4 dereferenceable(8) %16)
  ret void
}

; Function Attrs: mustprogress nounwind uwtable
define linkonce_odr noundef ptr @_ZNKSt12__shared_ptrIN32pxrInternal_v0_24__pxrReserved__12GfColorSpace5_DataELN9__gnu_cxx12_Lock_policyE2EE3getEv(ptr noundef nonnull align 8 dereferenceable(16) %0) #2 comdat align 2 {
  %2 = alloca ptr, align 8
  store ptr %0, ptr %2, align 8
  %3 = load ptr, ptr %2, align 8
  %4 = getelementptr inbounds nuw %"class.std::__shared_ptr", ptr %3, i32 0, i32 0
  %5 = load ptr, ptr %4, align 8
  ret ptr %5
}

; Function Attrs: mustprogress nounwind uwtable
define linkonce_odr void @_ZNSt5tupleIJN32pxrInternal_v0_24__pxrReserved__7GfVec2fES1_S1_S1_EEC2IJS1_S1_S1_S1_ELb1ETnNSt9enable_ifIXclsr4_TCCIXT0_EEE29__is_implicitly_constructibleIDpT_EEEbE4typeELb1EEEDpOS5_(ptr noundef nonnull align 4 dereferenceable(32) %0, ptr noundef nonnull align 4 dereferenceable(8) %1, ptr noundef nonnull align 4 dereferenceable(8) %2, ptr noundef nonnull align 4 dereferenceable(8) %3, ptr noundef nonnull align 4 dereferenceable(8) %4) unnamed_addr #2 comdat align 2 personality ptr @__gxx_personality_v0 {
  %6 = alloca ptr, align 8
  %7 = alloca ptr, align 8
  %8 = alloca ptr, align 8
  %9 = alloca ptr, align 8
  %10 = alloca ptr, align 8
  store ptr %0, ptr %6, align 8
  store ptr %1, ptr %7, align 8
  store ptr %2, ptr %8, align 8
  store ptr %3, ptr %9, align 8
  store ptr %4, ptr %10, align 8
  %11 = load ptr, ptr %6, align 8
  %12 = load ptr, ptr %7, align 8
  %13 = load ptr, ptr %8, align 8
  %14 = load ptr, ptr %9, align 8
  %15 = load ptr, ptr %10, align 8
  invoke void @_ZNSt11_Tuple_implILm0EJN32pxrInternal_v0_24__pxrReserved__7GfVec2fES1_S1_S1_EEC2IS1_JS1_S1_S1_EvEEOT_DpOT0_(ptr noundef nonnull align 4 dereferenceable(32) %11, ptr noundef nonnull align 4 dereferenceable(8) %12, ptr noundef nonnull align 4 dereferenceable(8) %13, ptr noundef nonnull align 4 dereferenceable(8) %14, ptr noundef nonnull align 4 dereferenceable(8) %15)
          to label %16 unwind label %17

16:                                               ; preds = %5
  ret void

17:                                               ; preds = %5
  %18 = landingpad { ptr, i32 }
          catch ptr null
  %19 = extractvalue { ptr, i32 } %18, 0
  call void @__clang_call_terminate(ptr %19) #14
  unreachable
}

; Function Attrs: mustprogress nounwind uwtable
define linkonce_odr noundef ptr @_ZNKSt19__shared_ptr_accessIN32pxrInternal_v0_24__pxrReserved__12GfColorSpace5_DataELN9__gnu_cxx12_Lock_policyE2ELb0ELb0EE6_M_getEv(ptr noundef nonnull align 1 dereferenceable(1) %0) #2 comdat align 2 {
  %2 = alloca ptr, align 8
  store ptr %0, ptr %2, align 8
  %3 = load ptr, ptr %2, align 8
  %4 = call noundef ptr @_ZNKSt12__shared_ptrIN32pxrInternal_v0_24__pxrReserved__12GfColorSpace5_DataELN9__gnu_cxx12_Lock_policyE2EE3getEv(ptr noundef nonnull align 8 dereferenceable(16) %3) #9
  ret ptr %4
}

; Function Attrs: mustprogress nounwind uwtable
define linkonce_odr void @_ZN32pxrInternal_v0_24__pxrReserved__7GfVec2fC2Eff(ptr noundef nonnull align 4 dereferenceable(8) %0, float noundef %1, float noundef %2) unnamed_addr #2 comdat align 2 {
  %4 = alloca ptr, align 8
  %5 = alloca float, align 4
  %6 = alloca float, align 4
  store ptr %0, ptr %4, align 8
  store float %1, ptr %5, align 4
  store float %2, ptr %6, align 4
  %7 = load ptr, ptr %4, align 8
  %8 = getelementptr inbounds nuw %"class.pxrInternal_v0_24__pxrReserved__::GfVec2f", ptr %7, i32 0, i32 0
  %9 = load float, ptr %5, align 4
  store float %9, ptr %8, align 4
  %10 = getelementptr inbounds float, ptr %8, i64 1
  %11 = load float, ptr %6, align 4
  store float %11, ptr %10, align 4
  ret void
}

; Function Attrs: mustprogress nounwind uwtable
define linkonce_odr void @_ZSt10make_tupleIJN32pxrInternal_v0_24__pxrReserved__7GfVec2fES1_S1_S1_EESt5tupleIJDpNSt25__strip_reference_wrapperINSt5decayIT_E4typeEE6__typeEEEDpOS5_(ptr dead_on_unwind noalias writable sret(%"class.std::tuple") align 4 %0, ptr noundef nonnull align 4 dereferenceable(8) %1, ptr noundef nonnull align 4 dereferenceable(8) %2, ptr noundef nonnull align 4 dereferenceable(8) %3, ptr noundef nonnull align 4 dereferenceable(8) %4) #2 comdat {
  %6 = alloca ptr, align 8
  %7 = alloca ptr, align 8
  %8 = alloca ptr, align 8
  %9 = alloca ptr, align 8
  %10 = alloca ptr, align 8
  store ptr %0, ptr %6, align 8
  store ptr %1, ptr %7, align 8
  store ptr %2, ptr %8, align 8
  store ptr %3, ptr %9, align 8
  store ptr %4, ptr %10, align 8
  %11 = load ptr, ptr %7, align 8
  %12 = load ptr, ptr %8, align 8
  %13 = load ptr, ptr %9, align 8
  %14 = load ptr, ptr %10, align 8
  call void @_ZNSt5tupleIJN32pxrInternal_v0_24__pxrReserved__7GfVec2fES1_S1_S1_EEC2IJS1_S1_S1_S1_ELb1ETnNSt9enable_ifIXclsr4_TCCIXT0_EEE29__is_implicitly_constructibleIDpT_EEEbE4typeELb1EEEDpOS5_(ptr noundef nonnull align 4 dereferenceable(32) %0, ptr noundef nonnull align 4 dereferenceable(8) %11, ptr noundef nonnull align 4 dereferenceable(8) %12, ptr noundef nonnull align 4 dereferenceable(8) %13, ptr noundef nonnull align 4 dereferenceable(8) %14) #9
  ret void
}

; Function Attrs: mustprogress nounwind uwtable
define linkonce_odr void @_ZN32pxrInternal_v0_24__pxrReserved__7GfVec2fC2Ef(ptr noundef nonnull align 4 dereferenceable(8) %0, float noundef %1) unnamed_addr #2 comdat align 2 {
  %3 = alloca ptr, align 8
  %4 = alloca float, align 4
  store ptr %0, ptr %3, align 8
  store float %1, ptr %4, align 4
  %5 = load ptr, ptr %3, align 8
  %6 = getelementptr inbounds nuw %"class.pxrInternal_v0_24__pxrReserved__::GfVec2f", ptr %5, i32 0, i32 0
  %7 = load float, ptr %4, align 4
  store float %7, ptr %6, align 4
  %8 = getelementptr inbounds float, ptr %6, i64 1
  %9 = load float, ptr %4, align 4
  store float %9, ptr %8, align 4
  ret void
}

; Function Attrs: mustprogress nounwind uwtable
define linkonce_odr noundef ptr @_ZNKSt19__shared_ptr_accessIN32pxrInternal_v0_24__pxrReserved__12GfColorSpace5_DataELN9__gnu_cxx12_Lock_policyE2ELb0ELb0EEptEv(ptr noundef nonnull align 1 dereferenceable(1) %0) #2 comdat align 2 {
  %2 = alloca ptr, align 8
  store ptr %0, ptr %2, align 8
  %3 = load ptr, ptr %2, align 8
  %4 = call noundef ptr @_ZNKSt19__shared_ptr_accessIN32pxrInternal_v0_24__pxrReserved__12GfColorSpace5_DataELN9__gnu_cxx12_Lock_policyE2ELb0ELb0EE6_M_getEv(ptr noundef nonnull align 1 dereferenceable(1) %3) #9
  ret ptr %4
}

; Function Attrs: mustprogress uwtable
define void @_ZNK32pxrInternal_v0_24__pxrReserved__12GfColorSpace25GetPrimariesAndWhitePointEv(ptr dead_on_unwind noalias writable sret(%"class.std::tuple") align 4 %0, ptr noundef nonnull align 8 dereferenceable(16) %1) #0 align 2 {
  %3 = alloca ptr, align 8
  %4 = alloca ptr, align 8
  %5 = alloca %struct.pxr_nc_1_0_ColorSpaceDescriptor, align 8
  %6 = alloca %"class.pxrInternal_v0_24__pxrReserved__::GfVec2f", align 4
  %7 = alloca %"class.pxrInternal_v0_24__pxrReserved__::GfVec2f", align 4
  %8 = alloca %"class.pxrInternal_v0_24__pxrReserved__::GfVec2f", align 4
  %9 = alloca %"class.pxrInternal_v0_24__pxrReserved__::GfVec2f", align 4
  %10 = alloca %"class.pxrInternal_v0_24__pxrReserved__::GfVec2f", align 4
  %11 = alloca %"class.pxrInternal_v0_24__pxrReserved__::GfVec2f", align 4
  %12 = alloca %"class.pxrInternal_v0_24__pxrReserved__::GfVec2f", align 4
  %13 = alloca %"class.pxrInternal_v0_24__pxrReserved__::GfVec2f", align 4
  store ptr %0, ptr %3, align 8
  store ptr %1, ptr %4, align 8
  %14 = load ptr, ptr %4, align 8
  %15 = getelementptr inbounds nuw %"class.pxrInternal_v0_24__pxrReserved__::GfColorSpace", ptr %14, i32 0, i32 0
  %16 = call noundef ptr @_ZNKSt19__shared_ptr_accessIN32pxrInternal_v0_24__pxrReserved__12GfColorSpace5_DataELN9__gnu_cxx12_Lock_policyE2ELb0ELb0EEptEv(ptr noundef nonnull align 1 dereferenceable(1) %15) #9
  %17 = getelementptr inbounds nuw %"struct.pxrInternal_v0_24__pxrReserved__::GfColorSpace::_Data", ptr %16, i32 0, i32 0
  %18 = load ptr, ptr %17, align 8
  %19 = call zeroext i1 @pxr_nc_1_0_GetColorSpaceDescriptor(ptr noundef %18, ptr noundef %5)
  br i1 %19, label %21, label %20

20:                                               ; preds = %2
  call void @_ZN32pxrInternal_v0_24__pxrReserved__7GfVec2fC2Ef(ptr noundef nonnull align 4 dereferenceable(8) %6, float noundef 0.000000e+00)
  call void @_ZN32pxrInternal_v0_24__pxrReserved__7GfVec2fC2Ef(ptr noundef nonnull align 4 dereferenceable(8) %7, float noundef 0.000000e+00)
  call void @_ZN32pxrInternal_v0_24__pxrReserved__7GfVec2fC2Ef(ptr noundef nonnull align 4 dereferenceable(8) %8, float noundef 0.000000e+00)
  call void @_ZN32pxrInternal_v0_24__pxrReserved__7GfVec2fC2Ef(ptr noundef nonnull align 4 dereferenceable(8) %9, float noundef 0.000000e+00)
  call void @_ZSt10make_tupleIJN32pxrInternal_v0_24__pxrReserved__7GfVec2fES1_S1_S1_EESt5tupleIJDpNSt25__strip_reference_wrapperINSt5decayIT_E4typeEE6__typeEEEDpOS5_(ptr dead_on_unwind writable sret(%"class.std::tuple") align 4 %0, ptr noundef nonnull align 4 dereferenceable(8) %6, ptr noundef nonnull align 4 dereferenceable(8) %7, ptr noundef nonnull align 4 dereferenceable(8) %8, ptr noundef nonnull align 4 dereferenceable(8) %9)
  br label %46

21:                                               ; preds = %2
  %22 = getelementptr inbounds nuw %struct.pxr_nc_1_0_ColorSpaceDescriptor, ptr %5, i32 0, i32 1
  %23 = getelementptr inbounds nuw %struct.pxr_nc_1_0_Chromaticity, ptr %22, i32 0, i32 0
  %24 = load float, ptr %23, align 8
  %25 = getelementptr inbounds nuw %struct.pxr_nc_1_0_ColorSpaceDescriptor, ptr %5, i32 0, i32 1
  %26 = getelementptr inbounds nuw %struct.pxr_nc_1_0_Chromaticity, ptr %25, i32 0, i32 1
  %27 = load float, ptr %26, align 4
  call void @_ZN32pxrInternal_v0_24__pxrReserved__7GfVec2fC2Eff(ptr noundef nonnull align 4 dereferenceable(8) %10, float noundef %24, float noundef %27)
  %28 = getelementptr inbounds nuw %struct.pxr_nc_1_0_ColorSpaceDescriptor, ptr %5, i32 0, i32 2
  %29 = getelementptr inbounds nuw %struct.pxr_nc_1_0_Chromaticity, ptr %28, i32 0, i32 0
  %30 = load float, ptr %29, align 8
  %31 = getelementptr inbounds nuw %struct.pxr_nc_1_0_ColorSpaceDescriptor, ptr %5, i32 0, i32 2
  %32 = getelementptr inbounds nuw %struct.pxr_nc_1_0_Chromaticity, ptr %31, i32 0, i32 1
  %33 = load float, ptr %32, align 4
  call void @_ZN32pxrInternal_v0_24__pxrReserved__7GfVec2fC2Eff(ptr noundef nonnull align 4 dereferenceable(8) %11, float noundef %30, float noundef %33)
  %34 = getelementptr inbounds nuw %struct.pxr_nc_1_0_ColorSpaceDescriptor, ptr %5, i32 0, i32 3
  %35 = getelementptr inbounds nuw %struct.pxr_nc_1_0_Chromaticity, ptr %34, i32 0, i32 0
  %36 = load float, ptr %35, align 8
  %37 = getelementptr inbounds nuw %struct.pxr_nc_1_0_ColorSpaceDescriptor, ptr %5, i32 0, i32 3
  %38 = getelementptr inbounds nuw %struct.pxr_nc_1_0_Chromaticity, ptr %37, i32 0, i32 1
  %39 = load float, ptr %38, align 4
  call void @_ZN32pxrInternal_v0_24__pxrReserved__7GfVec2fC2Eff(ptr noundef nonnull align 4 dereferenceable(8) %12, float noundef %36, float noundef %39)
  %40 = getelementptr inbounds nuw %struct.pxr_nc_1_0_ColorSpaceDescriptor, ptr %5, i32 0, i32 4
  %41 = getelementptr inbounds nuw %struct.pxr_nc_1_0_Chromaticity, ptr %40, i32 0, i32 0
  %42 = load float, ptr %41, align 8
  %43 = getelementptr inbounds nuw %struct.pxr_nc_1_0_ColorSpaceDescriptor, ptr %5, i32 0, i32 4
  %44 = getelementptr inbounds nuw %struct.pxr_nc_1_0_Chromaticity, ptr %43, i32 0, i32 1
  %45 = load float, ptr %44, align 4
  call void @_ZN32pxrInternal_v0_24__pxrReserved__7GfVec2fC2Eff(ptr noundef nonnull align 4 dereferenceable(8) %13, float noundef %42, float noundef %45)
  call void @_ZSt10make_tupleIJN32pxrInternal_v0_24__pxrReserved__7GfVec2fES1_S1_S1_EESt5tupleIJDpNSt25__strip_reference_wrapperINSt5decayIT_E4typeEE6__typeEEEDpOS5_(ptr dead_on_unwind writable sret(%"class.std::tuple") align 4 %0, ptr noundef nonnull align 4 dereferenceable(8) %10, ptr noundef nonnull align 4 dereferenceable(8) %11, ptr noundef nonnull align 4 dereferenceable(8) %12, ptr noundef nonnull align 4 dereferenceable(8) %13)
  br label %46

46:                                               ; preds = %21, %20
  ret void
}