; Function Attrs: mustprogress uwtable
define void @_ZNK32pxrInternal_v0_24__pxrReserved__12GfColorSpace25GetPrimariesAndWhitePointEv(ptr dead_on_unwind noalias writable writeonly sret(%"class.std::tuple") align 4 captures(none) initializes((0, 32)) %0, ptr noundef nonnull readonly align 8 captures(none) dereferenceable(16) %1) local_unnamed_addr #0 align 2 personality ptr @__gxx_personality_v0 {
  %3 = alloca %struct.pxr_nc_1_0_ColorSpaceDescriptor, align 8
  %4 = load ptr, ptr %1, align 8
  %5 = load ptr, ptr %4, align 8
  %6 = call zeroext i1 @pxr_nc_1_0_GetColorSpaceDescriptor(ptr noundef %5, ptr noundef nonnull %3)
  br i1 %6, label %7, label %24

7:                                                ; preds = %2
  %8 = getelementptr inbounds nuw i8, ptr %3, i64 8
  %9 = load i32, ptr %8, align 8
  %10 = getelementptr inbounds nuw i8, ptr %3, i64 12
  %11 = load i32, ptr %10, align 4
  %12 = getelementptr inbounds nuw i8, ptr %3, i64 16
  %13 = load i32, ptr %12, align 8
  %14 = getelementptr inbounds nuw i8, ptr %3, i64 20
  %15 = load i32, ptr %14, align 4
  %16 = getelementptr inbounds nuw i8, ptr %3, i64 24
  %17 = load i32, ptr %16, align 8
  %18 = getelementptr inbounds nuw i8, ptr %3, i64 28
  %19 = load i32, ptr %18, align 4
  %20 = getelementptr inbounds nuw i8, ptr %3, i64 32
  %21 = load i32, ptr %20, align 8
  %22 = getelementptr inbounds nuw i8, ptr %3, i64 36
  %23 = load i32, ptr %22, align 4
  br label %24

24:                                               ; preds = %2, %7
  %.sink29 = phi i32 [ %21, %7 ], [ 0, %2 ]
  %.sink28 = phi i32 [ %23, %7 ], [ 0, %2 ]
  %.sink27 = phi i32 [ %17, %7 ], [ 0, %2 ]
  %.sink26 = phi i32 [ %19, %7 ], [ 0, %2 ]
  %.sink25 = phi i32 [ %13, %7 ], [ 0, %2 ]
  %.sink24 = phi i32 [ %15, %7 ], [ 0, %2 ]
  %.sink23 = phi i32 [ %9, %7 ], [ 0, %2 ]
  %.sink = phi i32 [ %11, %7 ], [ 0, %2 ]
  store i32 %.sink29, ptr %0, align 4
  %25 = getelementptr inbounds nuw i8, ptr %0, i64 4
  store i32 %.sink28, ptr %25, align 4
  %26 = getelementptr inbounds nuw i8, ptr %0, i64 8
  store i32 %.sink27, ptr %26, align 4
  %27 = getelementptr inbounds nuw i8, ptr %0, i64 12
  store i32 %.sink26, ptr %27, align 4
  %28 = getelementptr inbounds nuw i8, ptr %0, i64 16
  store i32 %.sink25, ptr %28, align 4
  %29 = getelementptr inbounds nuw i8, ptr %0, i64 20
  store i32 %.sink24, ptr %29, align 4
  %30 = getelementptr inbounds nuw i8, ptr %0, i64 24
  store i32 %.sink23, ptr %30, align 4
  %31 = getelementptr inbounds nuw i8, ptr %0, i64 28
  store i32 %.sink, ptr %31, align 4
  ret void
}